target datalayout = "e-m:e-p270:32:32-p271:32:32-p272:64:64-i64:64-i128:128-f80:128-n8:16:32:64-S128"
target triple = "x86_64-pc-linux-gnu"

%struct.WalWriteMethodOps = type { ptr, ptr, ptr, ptr, ptr, ptr, ptr, ptr, ptr }
%struct.WalWriteMethod = type { ptr, i32, i32, i8, ptr, i32 }
%struct.TarMethodData = type { %struct.WalWriteMethod, ptr, i32, ptr, ptr, ptr }

@.str = private unnamed_addr constant [8 x i8] c".tar.gz\00", align 1
@.str.1 = private unnamed_addr constant [5 x i8] c".tar\00", align 1
@WalTarMethodOps = internal constant %struct.WalWriteMethodOps { ptr @tar_open_for_write, ptr @tar_close, ptr @tar_existsfile, ptr @tar_get_file_size, ptr @tar_get_file_name, ptr @tar_write, ptr @tar_sync, ptr @tar_finish, ptr @tar_free }, align 8
@.str.2 = private unnamed_addr constant [5 x i8] c"%s%s\00", align 1

; Function Attrs: nounwind uwtable
define dso_local ptr @CreateWalTarMethod(ptr noundef %0, i32 noundef %1, i32 noundef %2, i1 noundef zeroext %3) #0 {
  %5 = alloca ptr, align 8
  %6 = alloca i32, align 4
  %7 = alloca i32, align 4
  %8 = alloca i8, align 1
  %9 = alloca ptr, align 8
  %10 = alloca ptr, align 8
  store ptr %0, ptr %5, align 8
  store i32 %1, ptr %6, align 4
  store i32 %2, ptr %7, align 4
  %11 = zext i1 %3 to i8
  store i8 %11, ptr %8, align 1
  call void @llvm.lifetime.start.p0(i64 8, ptr %9) #9
  call void @llvm.lifetime.start.p0(i64 8, ptr %10) #9
  %12 = load i32, ptr %6, align 4
  %13 = icmp eq i32 %12, 1
  %14 = select i1 %13, ptr @.str, ptr @.str.1
  store ptr %14, ptr %10, align 8
  %15 = call ptr @pg_malloc0(i64 noundef 80)
  store ptr %15, ptr %9, align 8
  %16 = load ptr, ptr %9, align 8
  %17 = getelementptr inbounds nuw %struct.TarMethodData, ptr %16, i32 0, i32 0
  %18 = getelementptr inbounds nuw %struct.WalWriteMethod, ptr %17, i32 0, i32 0
  store ptr @WalTarMethodOps, ptr %18, align 8
  %19 = load i32, ptr %6, align 4
  %20 = load ptr, ptr %9, align 8
  %21 = getelementptr inbounds nuw %struct.TarMethodData, ptr %20, i32 0, i32 0
  %22 = getelementptr inbounds nuw %struct.WalWriteMethod, ptr %21, i32 0, i32 1
  store i32 %19, ptr %22, align 8
  %23 = load i32, ptr %7, align 4
  %24 = load ptr, ptr %9, align 8
  %25 = getelementptr inbounds nuw %struct.TarMethodData, ptr %24, i32 0, i32 0
  %26 = getelementptr inbounds nuw %struct.WalWriteMethod, ptr %25, i32 0, i32 2
  store i32 %23, ptr %26, align 4
  %27 = load i8, ptr %8, align 1, !range !4, !noundef !5
  %28 = trunc i8 %27 to i1
  %29 = load ptr, ptr %9, align 8
  %30 = getelementptr inbounds nuw %struct.TarMethodData, ptr %29, i32 0, i32 0
  %31 = getelementptr inbounds nuw %struct.WalWriteMethod, ptr %30, i32 0, i32 3
  %32 = zext i1 %28 to i8
  store i8 %32, ptr %31, align 8
  %33 = load ptr, ptr %9, align 8
  %34 = getelementptr inbounds nuw %struct.TarMethodData, ptr %33, i32 0, i32 0
  %35 = getelementptr inbounds nuw %struct.WalWriteMethod, ptr %34, i32 0, i32 4
  store ptr null, ptr %35, align 8
  %36 = load ptr, ptr %9, align 8
  %37 = getelementptr inbounds nuw %struct.TarMethodData, ptr %36, i32 0, i32 0
  %38 = getelementptr inbounds nuw %struct.WalWriteMethod, ptr %37, i32 0, i32 5
  store i32 0, ptr %38, align 8
  %39 = load ptr, ptr %5, align 8
  %40 = call i64 @strlen(ptr noundef %39) #10
  %41 = load ptr, ptr %10, align 8
  %42 = call i64 @strlen(ptr noundef %41) #10
  %43 = add i64 %40, %42
  %44 = add i64 %43, 1
  %45 = call ptr @pg_malloc0(i64 noundef %44)
  %46 = load ptr, ptr %9, align 8
  %47 = getelementptr inbounds nuw %struct.TarMethodData, ptr %46, i32 0, i32 1
  store ptr %45, ptr %47, align 8
  %48 = load ptr, ptr %9, align 8
  %49 = getelementptr inbounds nuw %struct.TarMethodData, ptr %48, i32 0, i32 1
  %50 = load ptr, ptr %49, align 8
  %51 = load ptr, ptr %5, align 8
  %52 = load ptr, ptr %10, align 8
  %53 = call i32 (ptr, ptr, ...) @pg_sprintf(ptr noundef %50, ptr noundef @.str.2, ptr noundef %51, ptr noundef %52)
  %54 = load ptr, ptr %9, align 8
  %55 = getelementptr inbounds nuw %struct.TarMethodData, ptr %54, i32 0, i32 2
  store i32 -1, ptr %55, align 8
  %56 = load i32, ptr %6, align 4
  %57 = icmp eq i32 %56, 1
  br i1 %57, label %58, label %62

58:                                               ; preds = %4
  %59 = call ptr @pg_malloc(i64 noundef 4097)
  %60 = load ptr, ptr %9, align 8
  %61 = getelementptr inbounds nuw %struct.TarMethodData, ptr %60, i32 0, i32 5
  store ptr %59, ptr %61, align 8
  br label %62

62:                                               ; preds = %58, %4
  %63 = load ptr, ptr %9, align 8
  %64 = getelementptr inbounds nuw %struct.TarMethodData, ptr %63, i32 0, i32 0
  call void @llvm.lifetime.end.p0(i64 8, ptr %10) #9
  call void @llvm.lifetime.end.p0(i64 8, ptr %9) #9
  ret ptr %64
}