; Function Attrs: nounwind uwtable
define dso_local noundef ptr @CreateWalTarMethod(ptr noundef %0, i32 noundef %1, i32 noundef %2, i1 noundef zeroext %3) local_unnamed_addr #0 {
  %5 = zext i1 %3 to i8
  %6 = icmp eq i32 %1, 1
  %7 = select i1 %6, ptr @.str, ptr @.str.1
  %8 = tail call ptr @pg_malloc0(i64 noundef 80) #12
  store ptr @WalTarMethodOps, ptr %8, align 8
  %9 = getelementptr inbounds nuw i8, ptr %8, i64 8
  store i32 %1, ptr %9, align 8
  %10 = getelementptr inbounds nuw i8, ptr %8, i64 12
  store i32 %2, ptr %10, align 4
  %11 = getelementptr inbounds nuw i8, ptr %8, i64 16
  store i8 %5, ptr %11, align 8
  %12 = getelementptr inbounds nuw i8, ptr %8, i64 24
  store ptr null, ptr %12, align 8
  %13 = getelementptr inbounds nuw i8, ptr %8, i64 32
  store i32 0, ptr %13, align 8
  %14 = tail call i64 @strlen(ptr noundef nonnull dereferenceable(1) %0) #13
  %15 = select i1 %6, i64 8, i64 5
  %16 = add i64 %15, %14
  %17 = tail call ptr @pg_malloc0(i64 noundef %16) #12
  %18 = getelementptr inbounds nuw i8, ptr %8, i64 40
  store ptr %17, ptr %18, align 8
  %19 = tail call i32 (ptr, ptr, ...) @pg_sprintf(ptr noundef %17, ptr noundef nonnull @.str.2, ptr noundef nonnull %0, ptr noundef nonnull %7) #12
  %20 = getelementptr inbounds nuw i8, ptr %8, i64 48
  store i32 -1, ptr %20, align 8
  br i1 %6, label %21, label %24

21:                                               ; preds = %4
  %22 = tail call ptr @pg_malloc(i64 noundef 4097) #12
  %23 = getelementptr inbounds nuw i8, ptr %8, i64 72
  store ptr %22, ptr %23, align 8
  br label %24

24:                                               ; preds = %21, %4
  ret ptr %8
}